target datalayout = "e-m:e-p270:32:32-p271:32:32-p272:64:64-i64:64-i128:128-f80:128-n8:16:32:64-S128"
target triple = "x86_64-pc-linux-gnu"

%struct.ContentType = type { ptr, ptr }

; Function Attrs: nounwind uwtable
define dso_local ptr @Curl_mime_contenttype(ptr noundef %0) #0 {
  %2 = alloca ptr, align 8
  %3 = alloca ptr, align 8
  %4 = alloca i64, align 8
  %5 = alloca ptr, align 8
  %6 = alloca i32, align 4
  %7 = alloca i64, align 8
  %8 = alloca i32, align 4
  store ptr %0, ptr %3, align 8, !tbaa !49
  %9 = load ptr, ptr %3, align 8, !tbaa !49
  %10 = icmp ne ptr %9, null
  br i1 %10, label %11, label %60

11:                                               ; preds = %1
  call void @llvm.lifetime.start.p0(i64 8, ptr %4) #8
  %12 = load ptr, ptr %3, align 8, !tbaa !49
  %13 = call i64 @strlen(ptr noundef %12) #9
  store i64 %13, ptr %4, align 8, !tbaa !50
  call void @llvm.lifetime.start.p0(i64 8, ptr %5) #8
  %14 = load ptr, ptr %3, align 8, !tbaa !49
  %15 = load i64, ptr %4, align 8, !tbaa !50
  %16 = getelementptr inbounds nuw i8, ptr %14, i64 %15
  store ptr %16, ptr %5, align 8, !tbaa !49
  call void @llvm.lifetime.start.p0(i64 4, ptr %6) #8
  store i32 0, ptr %6, align 4, !tbaa !45
  br label %17

17:                                               ; preds = %53, %11
  %18 = load i32, ptr %6, align 4, !tbaa !45
  %19 = zext i32 %18 to i64
  %20 = icmp ult i64 %19, 10
  br i1 %20, label %21, label %56

21:                                               ; preds = %17
  call void @llvm.lifetime.start.p0(i64 8, ptr %7) #8
  %22 = load i32, ptr %6, align 4, !tbaa !45
  %23 = zext i32 %22 to i64
  %24 = getelementptr inbounds nuw [10 x %struct.ContentType], ptr @Curl_mime_contenttype.ctts, i64 0, i64 %23
  %25 = getelementptr inbounds nuw %struct.ContentType, ptr %24, i32 0, i32 0
  %26 = load ptr, ptr %25, align 16, !tbaa !82
  %27 = call i64 @strlen(ptr noundef %26) #9
  store i64 %27, ptr %7, align 8, !tbaa !50
  %28 = load i64, ptr %4, align 8, !tbaa !50
  %29 = load i64, ptr %7, align 8, !tbaa !50
  %30 = icmp uge i64 %28, %29
  br i1 %30, label %31, label %49

31:                                               ; preds = %21
  %32 = load ptr, ptr %5, align 8, !tbaa !49
  %33 = load i64, ptr %7, align 8, !tbaa !50
  %34 = sub i64 0, %33
  %35 = getelementptr inbounds i8, ptr %32, i64 %34
  %36 = load i32, ptr %6, align 4, !tbaa !45
  %37 = zext i32 %36 to i64
  %38 = getelementptr inbounds nuw [10 x %struct.ContentType], ptr @Curl_mime_contenttype.ctts, i64 0, i64 %37
  %39 = getelementptr inbounds nuw %struct.ContentType, ptr %38, i32 0, i32 0
  %40 = load ptr, ptr %39, align 16, !tbaa !82
  %41 = call i32 @curl_strequal(ptr noundef %35, ptr noundef %40)
  %42 = icmp ne i32 %41, 0
  br i1 %42, label %43, label %49

43:                                               ; preds = %31
  %44 = load i32, ptr %6, align 4, !tbaa !45
  %45 = zext i32 %44 to i64
  %46 = getelementptr inbounds nuw [10 x %struct.ContentType], ptr @Curl_mime_contenttype.ctts, i64 0, i64 %45
  %47 = getelementptr inbounds nuw %struct.ContentType, ptr %46, i32 0, i32 1
  %48 = load ptr, ptr %47, align 8, !tbaa !84
  store ptr %48, ptr %2, align 8
  store i32 1, ptr %8, align 4
  br label %50

49:                                               ; preds = %31, %21
  store i32 0, ptr %8, align 4
  br label %50

50:                                               ; preds = %49, %43
  call void @llvm.lifetime.end.p0(i64 8, ptr %7) #8
  %51 = load i32, ptr %8, align 4
  switch i32 %51, label %57 [
    i32 0, label %52
  ]

52:                                               ; preds = %50
  br label %53

53:                                               ; preds = %52
  %54 = load i32, ptr %6, align 4, !tbaa !45
  %55 = add i32 %54, 1
  store i32 %55, ptr %6, align 4, !tbaa !45
  br label %17, !llvm.loop !85

56:                                               ; preds = %17
  store i32 0, ptr %8, align 4
  br label %57

57:                                               ; preds = %56, %50
  call void @llvm.lifetime.end.p0(i64 4, ptr %6) #8
  call void @llvm.lifetime.end.p0(i64 8, ptr %5) #8
  call void @llvm.lifetime.end.p0(i64 8, ptr %4) #8
  %58 = load i32, ptr %8, align 4
  switch i32 %58, label %63 [
    i32 0, label %59
    i32 1, label %61
  ]

59:                                               ; preds = %57
  br label %60

60:                                               ; preds = %59, %1
  store ptr null, ptr %2, align 8
  br label %61

61:                                               ; preds = %60, %57
  %62 = load ptr, ptr %2, align 8
  ret ptr %62

63:                                               ; preds = %57
  unreachable
}