; Function Attrs: nounwind uwtable
define dso_local ptr @Curl_mime_contenttype(ptr noundef %0) local_unnamed_addr #0 {
  %.not = icmp eq ptr %0, null
  br i1 %.not, label %.thread26, label %2

2:                                                ; preds = %1
  %3 = tail call i64 @strlen(ptr noundef nonnull dereferenceable(1) %0) #19
  %4 = getelementptr inbounds nuw i8, ptr %0, i64 %3
  br label %5

5:                                                ; preds = %2, %13
  %indvars.iv = phi i64 [ 0, %2 ], [ %indvars.iv.next, %13 ]
  %6 = getelementptr inbounds nuw [10 x %struct.ContentType], ptr @Curl_mime_contenttype.ctts, i64 0, i64 %indvars.iv
  %7 = load ptr, ptr %6, align 16, !tbaa !74
  %8 = tail call i64 @strlen(ptr noundef nonnull dereferenceable(1) %7) #19
  %.not21 = icmp ult i64 %3, %8
  br i1 %.not21, label %13, label %9

9:                                                ; preds = %5
  %10 = sub i64 0, %8
  %11 = getelementptr inbounds i8, ptr %4, i64 %10
  %12 = tail call i32 @curl_strequal(ptr noundef nonnull %11, ptr noundef nonnull %7) #18
  %.not22 = icmp eq i32 %12, 0
  br i1 %.not22, label %13, label %14

13:                                               ; preds = %9, %5
  %indvars.iv.next = add nuw nsw i64 %indvars.iv, 1
  %exitcond.not = icmp eq i64 %indvars.iv.next, 10
  br i1 %exitcond.not, label %.thread26, label %5, !llvm.loop !76

14:                                               ; preds = %9
  %15 = getelementptr inbounds nuw i8, ptr %6, i64 8
  %16 = load ptr, ptr %15, align 8, !tbaa !77
  br label %.thread26

.thread26:                                        ; preds = %13, %1, %14
  %.3 = phi ptr [ %16, %14 ], [ null, %1 ], [ null, %13 ]
  ret ptr %.3
}